target datalayout = "e-m:e-p270:32:32-p271:32:32-p272:64:64-i64:64-i128:128-f80:128-n8:16:32:64-S128"
target triple = "x86_64-pc-linux-gnu"

%"class.folly::AsyncUDPSocket" = type { %"class.folly::EventHandler", i16, ptr, ptr, %"class.folly::SocketAddress", %"struct.folly::NetworkSocket", i32, %"class.folly::SocketAddress", %"class.folly::SocketAddress", i8, i8, i8, i8, i8, i8, i32, i32, i32, %"class.folly::Optional.13", %"class.folly::Optional.13", %"class.folly::Optional.15", %"class.folly::Optional.13", ptr, i8, i8, i64, i64, i32, %"class.std::unordered_map", %"class.folly::Function", %"class.std::map", %"class.std::map", ptr, %"class.std::map.26", [8 x i8], %"class.folly::Function.31", %"class.folly::netops::DispatcherContainer" }
%"class.folly::EventHandler" = type { ptr, %"class.folly::EventBaseEvent", ptr }
%"class.folly::EventBaseEvent" = type { %struct.event, ptr, ptr, ptr, %"struct.folly::EventCallback" }
%struct.event = type { %struct.event_callback, %union.anon.2, i32, ptr, %union.anon.4, i16, i16, %struct.timeval }
%struct.event_callback = type { %struct.anon, i16, i8, i8, %union.anon.1, ptr }
%struct.anon = type { ptr, ptr }
%union.anon.1 = type { ptr }
%union.anon.2 = type { %struct.anon.3 }
%struct.anon.3 = type { ptr, ptr }
%union.anon.4 = type { %struct.anon.5 }
%struct.anon.5 = type { %struct.anon.6, %struct.timeval }
%struct.anon.6 = type { ptr, ptr }
%struct.timeval = type { i64, i64 }
%"struct.folly::EventCallback" = type { i32, %union.anon.9 }
%union.anon.9 = type { ptr }
%"struct.folly::NetworkSocket" = type { i32 }
%"class.folly::SocketAddress" = type <{ %"union.folly::SocketAddress::AddrStorage", i16, i8, [5 x i8] }>
%"union.folly::SocketAddress::AddrStorage" = type { %"struct.folly::SocketAddress::ExternalUnixAddr", [8 x i8] }
%"struct.folly::SocketAddress::ExternalUnixAddr" = type { ptr, i32 }
%"class.folly::Optional.15" = type { %"struct.folly::Optional<folly::AsyncUDPSocket::TXTime>::StorageTriviallyDestructible" }
%"struct.folly::Optional<folly::AsyncUDPSocket::TXTime>::StorageTriviallyDestructible" = type { %union.anon.16, i8, [3 x i8] }
%union.anon.16 = type { %"struct.folly::AsyncUDPSocket::TXTime" }
%"struct.folly::AsyncUDPSocket::TXTime" = type <{ i32, i8, [3 x i8] }>
%"class.folly::Optional.13" = type { %"struct.folly::Optional<int>::StorageTriviallyDestructible" }
%"struct.folly::Optional<int>::StorageTriviallyDestructible" = type <{ %union.anon.14, i8, [3 x i8] }>
%union.anon.14 = type { i32 }
%"class.std::unordered_map" = type { %"class.std::_Hashtable" }
%"class.std::_Hashtable" = type { ptr, i64, %"struct.std::__detail::_Hash_node_base", i64, %"struct.std::__detail::_Prime_rehash_policy", ptr }
%"struct.std::__detail::_Hash_node_base" = type { ptr }
%"struct.std::__detail::_Prime_rehash_policy" = type { float, i64 }
%"class.folly::Function" = type { %"union.folly::detail::function::Data", ptr, ptr }
%"union.folly::detail::function::Data" = type { %"struct.folly::detail::function::Data::BigTrivialLayout", [24 x i8] }
%"struct.folly::detail::function::Data::BigTrivialLayout" = type { ptr, i64, i64 }
%"class.std::map" = type { %"class.std::_Rb_tree" }
%"class.std::_Rb_tree" = type { %"struct.std::_Rb_tree<folly::SocketOptionKey, std::pair<const folly::SocketOptionKey, int>, std::_Select1st<std::pair<const folly::SocketOptionKey, int>>, std::less<folly::SocketOptionKey>>::_Rb_tree_impl" }
%"struct.std::_Rb_tree<folly::SocketOptionKey, std::pair<const folly::SocketOptionKey, int>, std::_Select1st<std::pair<const folly::SocketOptionKey, int>>, std::less<folly::SocketOptionKey>>::_Rb_tree_impl" = type { [8 x i8], %"struct.std::_Rb_tree_header" }
%"struct.std::_Rb_tree_header" = type { %"struct.std::_Rb_tree_node_base", i64 }
%"struct.std::_Rb_tree_node_base" = type { i32, ptr, ptr, ptr }
%"class.std::map.26" = type { %"class.std::_Rb_tree.27" }
%"class.std::_Rb_tree.27" = type { %"struct.std::_Rb_tree<folly::SocketOptionKey, std::pair<const folly::SocketOptionKey, std::__cxx11::basic_string<char>>, std::_Select1st<std::pair<const folly::SocketOptionKey, std::__cxx11::basic_string<char>>>, std::less<folly::SocketOptionKey>>::_Rb_tree_impl" }
%"struct.std::_Rb_tree<folly::SocketOptionKey, std::pair<const folly::SocketOptionKey, std::__cxx11::basic_string<char>>, std::_Select1st<std::pair<const folly::SocketOptionKey, std::__cxx11::basic_string<char>>>, std::less<folly::SocketOptionKey>>::_Rb_tree_impl" = type { [8 x i8], %"struct.std::_Rb_tree_header" }
%"class.folly::Function.31" = type { %"union.folly::detail::function::Data", ptr, ptr }
%"class.folly::netops::DispatcherContainer" = type { %"class.std::shared_ptr" }
%"class.std::shared_ptr" = type { %"class.std::__shared_ptr" }
%"class.std::__shared_ptr" = type { ptr, %"class.std::__shared_count" }
%"class.std::__shared_count" = type { ptr }
%"class.folly::IPAddress" = type <{ %"union.folly::IPAddress::IPAddressV46", i16, [2 x i8] }>
%"union.folly::IPAddress::IPAddressV46" = type { %"class.folly::IPAddressV4", [16 x i8] }
%"class.folly::IPAddressV4" = type { %"union.folly::IPAddressV4::AddressStorage" }
%"union.folly::IPAddressV4::AddressStorage" = type { %struct.in_addr }
%struct.in_addr = type { i32 }

; Function Attrs: mustprogress nounwind uwtable
define linkonce_odr noundef zeroext i16 @_ZNK5folly9IPAddress6familyEv(ptr noundef nonnull align 4 dereferenceable(22) %0) #0 comdat align 2 {
  %2 = alloca ptr, align 8
  store ptr %0, ptr %2, align 8, !tbaa !404
  %3 = load ptr, ptr %2, align 8
  %4 = getelementptr inbounds nuw %"class.folly::IPAddress", ptr %3, i32 0, i32 1
  %5 = load i16, ptr %4, align 4, !tbaa !406
  ret i16 %5
}

; Function Attrs: mustprogress uwtable
define linkonce_odr noundef zeroext i16 @_ZNK5folly13SocketAddress9getFamilyEv(ptr noundef nonnull align 8 dereferenceable(27) %0) #1 comdat align 2 {
  %2 = alloca ptr, align 8
  store ptr %0, ptr %2, align 8, !tbaa !70
  %3 = load ptr, ptr %2, align 8
  %4 = getelementptr inbounds nuw %"class.folly::SocketAddress", ptr %3, i32 0, i32 2
  %5 = load i8, ptr %4, align 2, !tbaa !207, !range !114, !noundef !115
  %6 = trunc i8 %5 to i1
  br i1 %6, label %7, label %8

7:                                                ; preds = %1
  br label %11

8:                                                ; preds = %1
  %9 = getelementptr inbounds nuw %"class.folly::SocketAddress", ptr %3, i32 0, i32 0
  %10 = call noundef zeroext i16 @_ZNK5folly9IPAddress6familyEv(ptr noundef nonnull align 4 dereferenceable(22) %9)
  br label %11

11:                                               ; preds = %8, %7
  %12 = phi i16 [ 1, %7 ], [ %10, %8 ]
  ret i16 %12
}

; Function Attrs: mustprogress uwtable
define noundef zeroext i1 @_ZN5folly14AsyncUDPSocket16setTxZeroChksum6Eb(ptr noundef nonnull align 16 dereferenceable(768) %0, i1 noundef zeroext %1) #1 align 2 {
  %3 = alloca i1, align 1
  %4 = alloca ptr, align 8
  %5 = alloca i8, align 1
  %6 = alloca i32, align 4
  %7 = alloca i32, align 4
  %8 = alloca %"struct.folly::NetworkSocket", align 4
  store ptr %0, ptr %4, align 8, !tbaa !7
  %9 = zext i1 %1 to i8
  store i8 %9, ptr %5, align 1, !tbaa !110
  %10 = load ptr, ptr %4, align 8
  %11 = load ptr, ptr %10, align 16, !tbaa !96
  %12 = getelementptr inbounds ptr, ptr %11, i64 3
  %13 = load ptr, ptr %12, align 8
  %14 = call noundef nonnull align 8 dereferenceable(27) ptr %13(ptr noundef nonnull align 16 dereferenceable(768) %10)
  %15 = call noundef zeroext i16 @_ZNK5folly13SocketAddress9getFamilyEv(ptr noundef nonnull align 8 dereferenceable(27) %14)
  %16 = zext i16 %15 to i32
  %17 = icmp ne i32 %16, 10
  br i1 %17, label %18, label %19

18:                                               ; preds = %2
  store i1 false, ptr %3, align 1
  br label %30

19:                                               ; preds = %2
  call void @llvm.lifetime.start.p0(i64 4, ptr %6) #25
  %20 = load i8, ptr %5, align 1, !tbaa !110, !range !114, !noundef !115
  %21 = trunc i8 %20 to i1
  %22 = select i1 %21, i32 1, i32 0
  store i32 %22, ptr %6, align 4, !tbaa !74
  call void @llvm.lifetime.start.p0(i64 4, ptr %7) #25
  %23 = getelementptr inbounds nuw %"class.folly::AsyncUDPSocket", ptr %10, i32 0, i32 5
  call void @llvm.memcpy.p0.p0.i64(ptr align 4 %8, ptr align 16 %23, i64 4, i1 false), !tbaa.struct !77
  %24 = getelementptr inbounds nuw %"struct.folly::NetworkSocket", ptr %8, i32 0, i32 0
  %25 = load i32, ptr %24, align 4
  %26 = call noundef i32 @_ZN5folly6netops10setsockoptENS_13NetworkSocketEiiPKvj(i32 %25, i32 noundef 17, i32 noundef 101, ptr noundef %6, i32 noundef 4)
  store i32 %26, ptr %7, align 4, !tbaa !74
  %27 = load i32, ptr %7, align 4, !tbaa !74
  %28 = icmp ne i32 %27, 0
  %29 = xor i1 %28, true
  store i1 %29, ptr %3, align 1
  call void @llvm.lifetime.end.p0(i64 4, ptr %7) #25
  call void @llvm.lifetime.end.p0(i64 4, ptr %6) #25
  br label %30

30:                                               ; preds = %19, %18
  %31 = load i1, ptr %3, align 1
  ret i1 %31
}