; Function Attrs: mustprogress uwtable
define noundef zeroext i1 @_ZN5folly14AsyncUDPSocket16setTxZeroChksum6Eb(ptr noundef nonnull align 16 dereferenceable(768) %0, i1 noundef zeroext %1) local_unnamed_addr #1 align 2 {
  %3 = alloca i32, align 4
  %4 = load ptr, ptr %0, align 16, !tbaa !124
  %5 = getelementptr inbounds nuw i8, ptr %4, i64 24
  %6 = load ptr, ptr %5, align 8
  %7 = tail call noundef nonnull align 8 dereferenceable(27) ptr %6(ptr noundef nonnull align 16 dereferenceable(768) %0)
  %8 = getelementptr inbounds nuw i8, ptr %7, i64 26
  %9 = load i8, ptr %8, align 2, !tbaa !17, !range !21, !noundef !22
  %10 = trunc nuw i8 %9 to i1
  %11 = getelementptr inbounds nuw i8, ptr %7, i64 20
  %12 = load i16, ptr %11, align 4
  %.not4 = icmp ne i16 %12, 10
  %.not.not = select i1 %10, i1 true, i1 %.not4
  br i1 %.not.not, label %17, label %13

13:                                               ; preds = %2
  call void @llvm.lifetime.start.p0(i64 4, ptr nonnull %3) #36
  %14 = zext i1 %1 to i32
  store i32 %14, ptr %3, align 4, !tbaa !34
  %15 = getelementptr inbounds nuw i8, ptr %0, i64 240
  %.sroa.0.0.copyload = load i32, ptr %15, align 16, !tbaa !34
  %16 = call noundef i32 @_ZN5folly6netops10setsockoptENS_13NetworkSocketEiiPKvj(i32 %.sroa.0.0.copyload, i32 noundef 17, i32 noundef 101, ptr noundef nonnull %3, i32 noundef 4)
  %.not3 = icmp eq i32 %16, 0
  call void @llvm.lifetime.end.p0(i64 4, ptr nonnull %3) #36
  br label %17

17:                                               ; preds = %2, %13
  %.0 = phi i1 [ %.not3, %13 ], [ false, %2 ]
  ret i1 %.0
}